; Function Attrs: mustprogress uwtable
define void @_ZN10CmdExtract11UnstoreFileER11ComprDataIOl(ptr noundef nonnull align 8 dereferenceable(266) %0, i64 noundef %1) local_unnamed_addr #0 align 2 personality ptr @__gxx_personality_v0 {
  %malloc.i = tail call dereferenceable_or_null(1048576) ptr @malloc(i64 1048576)
  %3 = icmp eq ptr %malloc.i, null
  br i1 %3, label %4, label %_ZN5ArrayIhEC2Em.exit.preheader

4:                                                ; preds = %2
  tail call void @_ZN12ErrorHandler11MemoryErrorEv(ptr noundef nonnull align 4 dereferenceable(14) @ErrHandler)
  br label %_ZN5ArrayIhEC2Em.exit.preheader

_ZN5ArrayIhEC2Em.exit.preheader:                  ; preds = %2, %4
  br label %_ZN5ArrayIhEC2Em.exit.outer

_ZN5ArrayIhEC2Em.exit.outer:                      ; preds = %_ZN5ArrayIhEC2Em.exit.preheader, %18
  %.0.ph = phi i64 [ %1, %_ZN5ArrayIhEC2Em.exit.preheader ], [ %19, %18 ]
  %5 = trunc i64 %.0.ph to i32
  br label %_ZN5ArrayIhEC2Em.exit

_ZN5ArrayIhEC2Em.exit:                            ; preds = %_ZN5ArrayIhEC2Em.exit.outer, %11
  %6 = invoke noundef i32 @_ZN11ComprDataIO7UnpReadEPhm(ptr noundef nonnull align 8 dereferenceable(266) %0, ptr noundef nonnull %malloc.i, i64 noundef 1048576)
          to label %7 unwind label %.loopexit

7:                                                ; preds = %_ZN5ArrayIhEC2Em.exit
  %8 = icmp slt i32 %6, 1
  br i1 %8, label %20, label %11

.loopexit:                                        ; preds = %_ZN5ArrayIhEC2Em.exit
  %lpad.loopexit = landingpad { ptr, i32 }
          cleanup
  br label %9

.loopexit.split-lp:                               ; preds = %16
  %lpad.loopexit.split-lp = landingpad { ptr, i32 }
          cleanup
  br label %9

9:                                                ; preds = %.loopexit.split-lp, %.loopexit
  %lpad.phi = phi { ptr, i32 } [ %lpad.loopexit, %.loopexit ], [ %lpad.loopexit.split-lp, %.loopexit.split-lp ]
  br i1 %3, label %_ZN5ArrayIhED2Ev.exit, label %10

10:                                               ; preds = %9
  tail call void @free(ptr noundef nonnull %malloc.i) #18
  br label %_ZN5ArrayIhED2Ev.exit

_ZN5ArrayIhED2Ev.exit:                            ; preds = %9, %10
  resume { ptr, i32 } %lpad.phi

11:                                               ; preds = %7
  %12 = zext nneg i32 %6 to i64
  %13 = icmp sgt i64 %.0.ph, %12
  %14 = select i1 %13, i32 %6, i32 %5
  %15 = icmp sgt i32 %14, 0
  br i1 %15, label %16, label %_ZN5ArrayIhEC2Em.exit, !llvm.loop !19

16:                                               ; preds = %11
  %17 = zext nneg i32 %14 to i64
  invoke void @_ZN11ComprDataIO8UnpWriteEPhm(ptr noundef nonnull align 8 dereferenceable(266) %0, ptr noundef nonnull %malloc.i, i64 noundef %17)
          to label %18 unwind label %.loopexit.split-lp

18:                                               ; preds = %16
  %19 = sub nsw i64 %.0.ph, %17
  br label %_ZN5ArrayIhEC2Em.exit.outer, !llvm.loop !19

20:                                               ; preds = %7
  br i1 %3, label %_ZN5ArrayIhED2Ev.exit15, label %21

21:                                               ; preds = %20
  tail call void @free(ptr noundef nonnull %malloc.i) #18
  br label %_ZN5ArrayIhED2Ev.exit15

_ZN5ArrayIhED2Ev.exit15:                          ; preds = %20, %21
  ret void
}